(lp0
(lp1
S'N'
p2
a(lp3
I4
aI9
aI16
aI25
aI36
aI49
aI64
aI81
aI100
aaa(lp4
S'dE'
p5
aF0.0001
aa(lp6
S't_max'
p7
aI100
aa(lp8
S'dumping'
p9
aF0.0
aa(lp10
S'epsilon'
p11
aF0.0001
aa(lp12
S'D_max'
p13
aI2
aa.